   1              		.arch armv7e-m
   2              		.eabi_attribute 27, 1
   3              		.eabi_attribute 28, 1
   4              		.eabi_attribute 20, 1
   5              		.eabi_attribute 21, 1
   6              		.eabi_attribute 23, 3
   7              		.eabi_attribute 24, 1
   8              		.eabi_attribute 25, 1
   9              		.eabi_attribute 26, 1
  10              		.eabi_attribute 30, 4
  11              		.eabi_attribute 34, 1
  12              		.eabi_attribute 18, 4
  13              		.file	"adc.c"
  14              		.text
  15              	.Ltext0:
  16              		.cfi_sections	.debug_frame
  17              		.align	1
  18              		.global	ADC_set_prediv
  19              		.arch armv7e-m
  20              		.syntax unified
  21              		.thumb
  22              		.thumb_func
  23              		.fpu fpv4-sp-d16
  24              		.type	ADC_set_prediv, %function
  25              	ADC_set_prediv:
  26              	.LVL0:
  27              	.LFB397:
  28              		.file 1 "src/adc.c"
   1:src/adc.c     **** #include "sys/devices.h"
   2:src/adc.c     **** #include "sys/cm4.h"
   3:src/adc.c     **** #include "sys/clock.h"
   4:src/adc.c     **** 
   5:src/adc.c     **** void ADC_set_prediv(uint32_t val) {
  29              		.loc 1 5 35 view -0
  30              		.cfi_startproc
  31              		@ args = 0, pretend = 0, frame = 0
  32              		@ frame_needed = 0, uses_anonymous_args = 0
  33              		@ link register save eliminated.
   6:src/adc.c     ****   ADC_common.CCR= (ADC_common.CCR & ~(3<<16)) | (val & 3)<<16;
  34              		.loc 1 6 3 view .LVU1
  35              		.loc 1 6 30 is_stmt 0 view .LVU2
  36 0000 044A     		ldr	r2, .L2
  37 0002 5368     		ldr	r3, [r2, #4]
  38              		.loc 1 6 58 view .LVU3
  39 0004 0004     		lsls	r0, r0, #16
  40              	.LVL1:
  41              		.loc 1 6 58 view .LVU4
  42 0006 00F44030 		and	r0, r0, #196608
  43              		.loc 1 6 35 view .LVU5
  44 000a 23F44033 		bic	r3, r3, #196608
  45              		.loc 1 6 47 view .LVU6
  46 000e 1843     		orrs	r0, r0, r3
  47              		.loc 1 6 17 view .LVU7
  48 0010 5060     		str	r0, [r2, #4]
   7:src/adc.c     **** }
  49              		.loc 1 7 1 view .LVU8
  50 0012 7047     		bx	lr
  51              	.L3:
  52              		.align	2
  53              	.L2:
  54 0014 00000000 		.word	ADC_common
  55              		.cfi_endproc
  56              	.LFE397:
  57              		.size	ADC_set_prediv, .-ADC_set_prediv
  58              		.align	1
  59              		.global	enable_Vrefint
  60              		.syntax unified
  61              		.thumb
  62              		.thumb_func
  63              		.fpu fpv4-sp-d16
  64              		.type	enable_Vrefint, %function
  65              	enable_Vrefint:
  66              	.LFB398:
   8:src/adc.c     **** 
   9:src/adc.c     **** void enable_Vrefint() {
  67              		.loc 1 9 23 is_stmt 1 view -0
  68              		.cfi_startproc
  69              		@ args = 0, pretend = 0, frame = 0
  70              		@ frame_needed = 0, uses_anonymous_args = 0
  71              		@ link register save eliminated.
  10:src/adc.c     ****   ADC_common.CCR|=(1<<23);
  72              		.loc 1 10 3 view .LVU10
  73              		.loc 1 10 17 is_stmt 0 view .LVU11
  74 0018 024A     		ldr	r2, .L5
  75 001a 5368     		ldr	r3, [r2, #4]
  76 001c 43F40003 		orr	r3, r3, #8388608
  77 0020 5360     		str	r3, [r2, #4]
  11:src/adc.c     **** }
  78              		.loc 1 11 1 view .LVU12
  79 0022 7047     		bx	lr
  80              	.L6:
  81              		.align	2
  82              	.L5:
  83 0024 00000000 		.word	ADC_common
  84              		.cfi_endproc
  85              	.LFE398:
  86              		.size	enable_Vrefint, .-enable_Vrefint
  87              		.align	1
  88              		.global	enable_Vbat
  89              		.syntax unified
  90              		.thumb
  91              		.thumb_func
  92              		.fpu fpv4-sp-d16
  93              		.type	enable_Vbat, %function
  94              	enable_Vbat:
  95              	.LFB399:
  12:src/adc.c     **** void enable_Vbat() {
  96              		.loc 1 12 20 is_stmt 1 view -0
  97              		.cfi_startproc
  98              		@ args = 0, pretend = 0, frame = 0
  99              		@ frame_needed = 0, uses_anonymous_args = 0
 100              		@ link register save eliminated.
  13:src/adc.c     ****   ADC_common.CCR|=(1<<22);
 101              		.loc 1 13 3 view .LVU14
 102              		.loc 1 13 17 is_stmt 0 view .LVU15
 103 0028 024A     		ldr	r2, .L8
 104 002a 5368     		ldr	r3, [r2, #4]
 105 002c 43F48003 		orr	r3, r3, #4194304
 106 0030 5360     		str	r3, [r2, #4]
  14:src/adc.c     **** }
 107              		.loc 1 14 1 view .LVU16
 108 0032 7047     		bx	lr
 109              	.L9:
 110              		.align	2
 111              	.L8:
 112 0034 00000000 		.word	ADC_common
 113              		.cfi_endproc
 114              	.LFE399:
 115              		.size	enable_Vbat, .-enable_Vbat
 116              		.align	1
 117              		.global	disable_Vrefint
 118              		.syntax unified
 119              		.thumb
 120              		.thumb_func
 121              		.fpu fpv4-sp-d16
 122              		.type	disable_Vrefint, %function
 123              	disable_Vrefint:
 124              	.LFB400:
  15:src/adc.c     **** void disable_Vrefint() {
 125              		.loc 1 15 24 is_stmt 1 view -0
 126              		.cfi_startproc
 127              		@ args = 0, pretend = 0, frame = 0
 128              		@ frame_needed = 0, uses_anonymous_args = 0
 129              		@ link register save eliminated.
  16:src/adc.c     ****   ADC_common.CCR&=~(1<<23);
 130              		.loc 1 16 3 view .LVU18
 131              		.loc 1 16 17 is_stmt 0 view .LVU19
 132 0038 024A     		ldr	r2, .L11
 133 003a 5368     		ldr	r3, [r2, #4]
 134 003c 23F40003 		bic	r3, r3, #8388608
 135 0040 5360     		str	r3, [r2, #4]
  17:src/adc.c     **** }
 136              		.loc 1 17 1 view .LVU20
 137 0042 7047     		bx	lr
 138              	.L12:
 139              		.align	2
 140              	.L11:
 141 0044 00000000 		.word	ADC_common
 142              		.cfi_endproc
 143              	.LFE400:
 144              		.size	disable_Vrefint, .-disable_Vrefint
 145              		.align	1
 146              		.global	disable_Vbat
 147              		.syntax unified
 148              		.thumb
 149              		.thumb_func
 150              		.fpu fpv4-sp-d16
 151              		.type	disable_Vbat, %function
 152              	disable_Vbat:
 153              	.LFB401:
  18:src/adc.c     **** void disable_Vbat() {
 154              		.loc 1 18 21 is_stmt 1 view -0
 155              		.cfi_startproc
 156              		@ args = 0, pretend = 0, frame = 0
 157              		@ frame_needed = 0, uses_anonymous_args = 0
 158              		@ link register save eliminated.
  19:src/adc.c     ****   ADC_common.CCR&=~(1<<22);
 159              		.loc 1 19 3 view .LVU22
 160              		.loc 1 19 17 is_stmt 0 view .LVU23
 161 0048 024A     		ldr	r2, .L14
 162 004a 5368     		ldr	r3, [r2, #4]
 163 004c 23F48003 		bic	r3, r3, #4194304
 164 0050 5360     		str	r3, [r2, #4]
  20:src/adc.c     **** }
 165              		.loc 1 20 1 view .LVU24
 166 0052 7047     		bx	lr
 167              	.L15:
 168              		.align	2
 169              	.L14:
 170 0054 00000000 		.word	ADC_common
 171              		.cfi_endproc
 172              	.LFE401:
 173              		.size	disable_Vbat, .-disable_Vbat
 174              		.align	1
 175              		.global	get_sampling_time_us
 176              		.syntax unified
 177              		.thumb
 178              		.thumb_func
 179              		.fpu fpv4-sp-d16
 180              		.type	get_sampling_time_us, %function
 181              	get_sampling_time_us:
 182              	.LVL2:
 183              	.LFB402:
  21:src/adc.c     **** 
  22:src/adc.c     **** float get_sampling_time_us(volatile struct ADCx_registers *ADCx, uint32_t channel) {
 184              		.loc 1 22 84 is_stmt 1 view -0
 185              		.cfi_startproc
 186              		@ args = 0, pretend = 0, frame = 0
 187              		@ frame_needed = 0, uses_anonymous_args = 0
  23:src/adc.c     ****   static const uint32_t ADC_smpr_cycles[8] =
 188              		.loc 1 23 3 view .LVU26
  24:src/adc.c     ****     {3,15,28,56,84,112,144,480};
  25:src/adc.c     ****   static const uint32_t ADC_prediv[4] =
 189              		.loc 1 25 3 view .LVU27
  26:src/adc.c     ****     {2,4,6,8};
  27:src/adc.c     ****   uint32_t ADC_freq=get_APB2CLK()/ADC_prediv[(ADC_common.CCR>>16)&0x3];
 190              		.loc 1 27 3 view .LVU28
  22:src/adc.c     ****   static const uint32_t ADC_smpr_cycles[8] =
 191              		.loc 1 22 84 is_stmt 0 view .LVU29
 192 0058 38B5     		push	{r3, r4, r5, lr}
 193              		.cfi_def_cfa_offset 16
 194              		.cfi_offset 3, -16
 195              		.cfi_offset 4, -12
 196              		.cfi_offset 5, -8
 197              		.cfi_offset 14, -4
  22:src/adc.c     ****   static const uint32_t ADC_smpr_cycles[8] =
 198              		.loc 1 22 84 view .LVU30
 199 005a 0C46     		mov	r4, r1
 200 005c 0546     		mov	r5, r0
 201              		.loc 1 27 21 view .LVU31
 202 005e FFF7FEFF 		bl	get_APB2CLK
 203              	.LVL3:
 204              		.loc 1 27 57 view .LVU32
 205 0062 174B     		ldr	r3, .L21
 206 0064 5A68     		ldr	r2, [r3, #4]
 207              		.loc 1 27 45 view .LVU33
 208 0066 174B     		ldr	r3, .L21+4
 209              		.loc 1 27 66 view .LVU34
 210 0068 C2F30142 		ubfx	r2, r2, #16, #2
  28:src/adc.c     ****   uint32_t ADC_cycles;
  29:src/adc.c     ****   if (channel<10) {
 211              		.loc 1 29 6 view .LVU35
 212 006c 092C     		cmp	r4, #9
  27:src/adc.c     ****   uint32_t ADC_cycles;
 213              		.loc 1 27 12 view .LVU36
 214 006e 53F82220 		ldr	r2, [r3, r2, lsl #2]
 215 0072 B0FBF2F2 		udiv	r2, r0, r2
 216 0076 07EE102A 		vmov	s14, r2	@ int
 217              	.LVL4:
  28:src/adc.c     ****   uint32_t ADC_cycles;
 218              		.loc 1 28 3 is_stmt 1 view .LVU37
 219              		.loc 1 29 3 view .LVU38
 220              		.loc 1 29 6 is_stmt 0 view .LVU39
 221 007a 16D8     		bhi	.L17
 222              	.LBB2:
  30:src/adc.c     ****     uint32_t bit_offset=channel*3;
 223              		.loc 1 30 5 is_stmt 1 view .LVU40
 224              	.LVL5:
  31:src/adc.c     ****     uint32_t smpr=((ADCx->SMPR2)>>bit_offset)&0x7;
 225              		.loc 1 31 5 view .LVU41
 226              		.loc 1 31 25 is_stmt 0 view .LVU42
 227 007c 2969     		ldr	r1, [r5, #16]
 228              	.LVL6:
  32:src/adc.c     ****     ADC_cycles=ADC_smpr_cycles[smpr];
 229              		.loc 1 32 5 is_stmt 1 view .LVU43
  30:src/adc.c     ****     uint32_t bit_offset=channel*3;
 230              		.loc 1 30 14 is_stmt 0 view .LVU44
 231 007e 04EB4404 		add	r4, r4, r4, lsl #1
 232              	.LVL7:
  31:src/adc.c     ****     uint32_t smpr=((ADCx->SMPR2)>>bit_offset)&0x7;
 233              		.loc 1 31 33 view .LVU45
 234 0082 21FA04F4 		lsr	r4, r1, r4
 235              	.LVL8:
 236              	.L20:
  31:src/adc.c     ****     uint32_t smpr=((ADCx->SMPR2)>>bit_offset)&0x7;
 237              		.loc 1 31 33 view .LVU46
 238              	.LBE2:
 239              	.LBB3:
  33:src/adc.c     ****   } else if (channel<=18) {
  34:src/adc.c     ****     uint32_t bit_offset=(channel-10)*3;
  35:src/adc.c     ****     uint32_t smpr=((ADCx->SMPR1)>>bit_offset)&0x7;
 240              		.loc 1 35 14 view .LVU47
 241 0086 04F00704 		and	r4, r4, #7
  36:src/adc.c     ****     ADC_cycles=ADC_smpr_cycles[smpr];
 242              		.loc 1 36 15 view .LVU48
 243 008a 03EB8404 		add	r4, r3, r4, lsl #2
 244 008e 2369     		ldr	r3, [r4, #16]
 245              	.LVL9:
 246              	.L18:
 247              		.loc 1 36 15 view .LVU49
 248              	.LBE3:
  37:src/adc.c     ****   } else {
  38:src/adc.c     ****     ADC_cycles=0;
  39:src/adc.c     ****   }
  40:src/adc.c     ****   return (ADC_cycles/(ADC_freq/1000000.));
 249              		.loc 1 40 3 is_stmt 1 view .LVU50
 250              		.loc 1 40 31 is_stmt 0 view .LVU51
 251 0090 DFED0D6A 		vldr.32	s13, .L21+8
 252 0094 B8EE477A 		vcvt.f32.u32	s14, s14
 253              	.LVL10:
 254              		.loc 1 40 21 view .LVU52
 255 0098 07EE903A 		vmov	s15, r3	@ int
 256              		.loc 1 40 31 view .LVU53
 257 009c 87EE260A 		vdiv.f32	s0, s14, s13
 258              		.loc 1 40 21 view .LVU54
 259 00a0 F8EE677A 		vcvt.f32.u32	s15, s15
  41:src/adc.c     **** }
 260              		.loc 1 41 1 view .LVU55
 261 00a4 87EE800A 		vdiv.f32	s0, s15, s0
 262 00a8 38BD     		pop	{r3, r4, r5, pc}
 263              	.LVL11:
 264              	.L17:
  33:src/adc.c     ****     uint32_t bit_offset=(channel-10)*3;
 265              		.loc 1 33 10 is_stmt 1 view .LVU56
  33:src/adc.c     ****     uint32_t bit_offset=(channel-10)*3;
 266              		.loc 1 33 13 is_stmt 0 view .LVU57
 267 00aa 122C     		cmp	r4, #18
 268 00ac 06D8     		bhi	.L19
 269              	.LBB4:
  34:src/adc.c     ****     uint32_t smpr=((ADCx->SMPR1)>>bit_offset)&0x7;
 270              		.loc 1 34 5 is_stmt 1 view .LVU58
 271              	.LVL12:
  35:src/adc.c     ****     ADC_cycles=ADC_smpr_cycles[smpr];
 272              		.loc 1 35 5 view .LVU59
  35:src/adc.c     ****     ADC_cycles=ADC_smpr_cycles[smpr];
 273              		.loc 1 35 25 is_stmt 0 view .LVU60
 274 00ae EA68     		ldr	r2, [r5, #12]
 275              	.LVL13:
  36:src/adc.c     ****   } else {
 276              		.loc 1 36 5 is_stmt 1 view .LVU61
  34:src/adc.c     ****     uint32_t smpr=((ADCx->SMPR1)>>bit_offset)&0x7;
 277              		.loc 1 34 37 is_stmt 0 view .LVU62
 278 00b0 04EB4404 		add	r4, r4, r4, lsl #1
 279              	.LVL14:
  34:src/adc.c     ****     uint32_t smpr=((ADCx->SMPR1)>>bit_offset)&0x7;
 280              		.loc 1 34 14 view .LVU63
 281 00b4 1E3C     		subs	r4, r4, #30
  35:src/adc.c     ****     ADC_cycles=ADC_smpr_cycles[smpr];
 282              		.loc 1 35 33 view .LVU64
 283 00b6 22FA04F4 		lsr	r4, r2, r4
 284 00ba E4E7     		b	.L20
 285              	.LVL15:
 286              	.L19:
  35:src/adc.c     ****     ADC_cycles=ADC_smpr_cycles[smpr];
 287              		.loc 1 35 33 view .LVU65
 288              	.LBE4:
  38:src/adc.c     ****   }
 289              		.loc 1 38 15 view .LVU66
 290 00bc 0023     		movs	r3, #0
 291 00be E7E7     		b	.L18
 292              	.L22:
 293              		.align	2
 294              	.L21:
 295 00c0 00000000 		.word	ADC_common
 296 00c4 00000000 		.word	.LANCHOR0
 297 00c8 00247449 		.word	1232348160
 298              		.cfi_endproc
 299              	.LFE402:
 300              		.size	get_sampling_time_us, .-get_sampling_time_us
 301              		.align	1
 302              		.global	ADC_set_sampling_time
 303              		.syntax unified
 304              		.thumb
 305              		.thumb_func
 306              		.fpu fpv4-sp-d16
 307              		.type	ADC_set_sampling_time, %function
 308              	ADC_set_sampling_time:
 309              	.LVL16:
 310              	.LFB403:
  42:src/adc.c     **** 
  43:src/adc.c     **** void ADC_set_sampling_time(volatile struct ADCx_registers *ADCx,
  44:src/adc.c     **** 				   uint32_t channel,uint32_t smpr)
  45:src/adc.c     **** {
 311              		.loc 1 45 1 is_stmt 1 view -0
 312              		.cfi_startproc
 313              		@ args = 0, pretend = 0, frame = 0
 314              		@ frame_needed = 0, uses_anonymous_args = 0
  46:src/adc.c     ****   if (channel <= 9)
 315              		.loc 1 46 3 view .LVU68
 316              		.loc 1 46 6 is_stmt 0 view .LVU69
 317 00cc 0929     		cmp	r1, #9
  45:src/adc.c     ****   if (channel <= 9)
 318              		.loc 1 45 1 view .LVU70
 319 00ce 10B5     		push	{r4, lr}
 320              		.cfi_def_cfa_offset 8
 321              		.cfi_offset 4, -8
 322              		.cfi_offset 14, -4
 323              		.loc 1 46 6 view .LVU71
 324 00d0 0BD8     		bhi	.L24
  47:src/adc.c     ****     {    ADCx->SMPR2=
 325              		.loc 1 47 10 is_stmt 1 view .LVU72
  48:src/adc.c     **** 	(ADCx->SMPR2 & ~(7<<(3*channel))) |
 326              		.loc 1 48 7 is_stmt 0 view .LVU73
 327 00d2 0369     		ldr	r3, [r0, #16]
 328              		.loc 1 48 24 view .LVU74
 329 00d4 01EB4101 		add	r1, r1, r1, lsl #1
 330              	.LVL17:
 331              		.loc 1 48 20 view .LVU75
 332 00d8 0724     		movs	r4, #7
 333 00da 8C40     		lsls	r4, r4, r1
 334              		.loc 1 48 15 view .LVU76
 335 00dc 23EA0403 		bic	r3, r3, r4
  49:src/adc.c     **** 	(smpr<<(3*channel));
 336              		.loc 1 49 7 view .LVU77
 337 00e0 02FA01F1 		lsl	r1, r2, r1
  48:src/adc.c     **** 	(ADCx->SMPR2 & ~(7<<(3*channel))) |
 338              		.loc 1 48 36 view .LVU78
 339 00e4 1943     		orrs	r1, r1, r3
  47:src/adc.c     ****     {    ADCx->SMPR2=
 340              		.loc 1 47 21 view .LVU79
 341 00e6 0161     		str	r1, [r0, #16]
 342              	.L23:
  50:src/adc.c     ****     }
  51:src/adc.c     ****   else if (channel <= 18 )
  52:src/adc.c     ****     {
  53:src/adc.c     ****       ADCx->SMPR1=
  54:src/adc.c     **** 	(ADCx->SMPR1 & ~(7<<(3*(channel-10)))) |
  55:src/adc.c     **** 	(smpr<<(3*(channel-10)));
  56:src/adc.c     ****     }
  57:src/adc.c     **** }
 343              		.loc 1 57 1 view .LVU80
 344 00e8 10BD     		pop	{r4, pc}
 345              	.LVL18:
 346              	.L24:
  51:src/adc.c     ****     {
 347              		.loc 1 51 8 is_stmt 1 view .LVU81
  51:src/adc.c     ****     {
 348              		.loc 1 51 11 is_stmt 0 view .LVU82
 349 00ea 1229     		cmp	r1, #18
 350 00ec FCD8     		bhi	.L23
  53:src/adc.c     **** 	(ADCx->SMPR1 & ~(7<<(3*(channel-10)))) |
 351              		.loc 1 53 7 is_stmt 1 view .LVU83
  54:src/adc.c     **** 	(smpr<<(3*(channel-10)));
 352              		.loc 1 54 24 is_stmt 0 view .LVU84
 353 00ee 01EB4101 		add	r1, r1, r1, lsl #1
 354              	.LVL19:
  54:src/adc.c     **** 	(smpr<<(3*(channel-10)));
 355              		.loc 1 54 7 view .LVU85
 356 00f2 C368     		ldr	r3, [r0, #12]
  54:src/adc.c     **** 	(smpr<<(3*(channel-10)));
 357              		.loc 1 54 24 view .LVU86
 358 00f4 1E39     		subs	r1, r1, #30
  54:src/adc.c     **** 	(smpr<<(3*(channel-10)));
 359              		.loc 1 54 20 view .LVU87
 360 00f6 0724     		movs	r4, #7
 361 00f8 8C40     		lsls	r4, r4, r1
  54:src/adc.c     **** 	(smpr<<(3*(channel-10)));
 362              		.loc 1 54 15 view .LVU88
 363 00fa 23EA0403 		bic	r3, r3, r4
  55:src/adc.c     ****     }
 364              		.loc 1 55 7 view .LVU89
 365 00fe 02FA01F1 		lsl	r1, r2, r1
  54:src/adc.c     **** 	(smpr<<(3*(channel-10)));
 366              		.loc 1 54 41 view .LVU90
 367 0102 1943     		orrs	r1, r1, r3
  53:src/adc.c     **** 	(ADCx->SMPR1 & ~(7<<(3*(channel-10)))) |
 368              		.loc 1 53 18 view .LVU91
 369 0104 C160     		str	r1, [r0, #12]
 370              		.loc 1 57 1 view .LVU92
 371 0106 EFE7     		b	.L23
 372              		.cfi_endproc
 373              	.LFE403:
 374              		.size	ADC_set_sampling_time, .-ADC_set_sampling_time
 375              		.align	1
 376              		.global	ADC_set_sequence
 377              		.syntax unified
 378              		.thumb
 379              		.thumb_func
 380              		.fpu fpv4-sp-d16
 381              		.type	ADC_set_sequence, %function
 382              	ADC_set_sequence:
 383              	.LVL20:
 384              	.LFB404:
  58:src/adc.c     **** 
  59:src/adc.c     **** void ADC_set_sequence(volatile struct ADCx_registers *ADCx,uint32_t* sequence,uint32_t len) {
 385              		.loc 1 59 93 is_stmt 1 view -0
 386              		.cfi_startproc
 387              		@ args = 0, pretend = 0, frame = 16
 388              		@ frame_needed = 0, uses_anonymous_args = 0
  60:src/adc.c     ****   uint32_t i,sqr[3]={0,0,0};
 389              		.loc 1 60 3 view .LVU94
  59:src/adc.c     ****   uint32_t i,sqr[3]={0,0,0};
 390              		.loc 1 59 93 is_stmt 0 view .LVU95
 391 0108 F0B5     		push	{r4, r5, r6, r7, lr}
 392              		.cfi_def_cfa_offset 20
 393              		.cfi_offset 4, -20
 394              		.cfi_offset 5, -16
 395              		.cfi_offset 6, -12
 396              		.cfi_offset 7, -8
 397              		.cfi_offset 14, -4
 398              		.loc 1 60 14 view .LVU96
 399 010a 0023     		movs	r3, #0
  59:src/adc.c     ****   uint32_t i,sqr[3]={0,0,0};
 400              		.loc 1 59 93 view .LVU97
 401 010c 85B0     		sub	sp, sp, #20
 402              		.cfi_def_cfa_offset 40
 403              		.loc 1 60 14 view .LVU98
 404 010e CDE90133 		strd	r3, r3, [sp, #4]
 405 0112 0393     		str	r3, [sp, #12]
  61:src/adc.c     ****   for (i=0;i<len;i++) {
 406              		.loc 1 61 3 is_stmt 1 view .LVU99
 407              	.LVL21:
  62:src/adc.c     ****     sqr[i/6]|=(sequence[i]&31)<<(5*(i%6));
 408              		.loc 1 62 10 is_stmt 0 view .LVU100
 409 0114 0626     		movs	r6, #6
 410              	.LVL22:
 411              	.L27:
  61:src/adc.c     ****   for (i=0;i<len;i++) {
 412              		.loc 1 61 12 is_stmt 1 discriminator 1 view .LVU101
  61:src/adc.c     ****   for (i=0;i<len;i++) {
 413              		.loc 1 61 3 is_stmt 0 discriminator 1 view .LVU102
 414 0116 9342     		cmp	r3, r2
 415 0118 0CD1     		bne	.L28
  63:src/adc.c     ****   }
  64:src/adc.c     ****   sqr[2]|=(((len-1)&15)<<20);
 416              		.loc 1 64 3 is_stmt 1 view .LVU103
 417              		.loc 1 64 17 is_stmt 0 view .LVU104
 418 011a 013B     		subs	r3, r3, #1
 419              	.LVL23:
 420              		.loc 1 64 9 view .LVU105
 421 011c 039A     		ldr	r2, [sp, #12]
 422              	.LVL24:
 423              		.loc 1 64 24 view .LVU106
 424 011e 1B05     		lsls	r3, r3, #20
 425              	.LVL25:
 426              		.loc 1 64 24 view .LVU107
 427 0120 03F47003 		and	r3, r3, #15728640
 428              		.loc 1 64 9 view .LVU108
 429 0124 1343     		orrs	r3, r3, r2
  65:src/adc.c     ****   ADCx->SQR1=sqr[2];
 430              		.loc 1 65 3 is_stmt 1 view .LVU109
 431              		.loc 1 65 13 is_stmt 0 view .LVU110
 432 0126 C362     		str	r3, [r0, #44]
  66:src/adc.c     ****   ADCx->SQR2=sqr[1];
 433              		.loc 1 66 3 is_stmt 1 view .LVU111
 434              		.loc 1 66 17 is_stmt 0 view .LVU112
 435 0128 029B     		ldr	r3, [sp, #8]
 436              		.loc 1 66 13 view .LVU113
 437 012a 0363     		str	r3, [r0, #48]
  67:src/adc.c     ****   ADCx->SQR3=sqr[0];
 438              		.loc 1 67 3 is_stmt 1 view .LVU114
 439              		.loc 1 67 17 is_stmt 0 view .LVU115
 440 012c 019B     		ldr	r3, [sp, #4]
 441              		.loc 1 67 13 view .LVU116
 442 012e 4363     		str	r3, [r0, #52]
  68:src/adc.c     **** }
 443              		.loc 1 68 1 view .LVU117
 444 0130 05B0     		add	sp, sp, #20
 445              		.cfi_remember_state
 446              		.cfi_def_cfa_offset 20
 447              		@ sp needed
 448 0132 F0BD     		pop	{r4, r5, r6, r7, pc}
 449              	.LVL26:
 450              	.L28:
 451              		.cfi_restore_state
  62:src/adc.c     ****   }
 452              		.loc 1 62 5 is_stmt 1 discriminator 3 view .LVU118
  62:src/adc.c     ****   }
 453              		.loc 1 62 13 is_stmt 0 discriminator 3 view .LVU119
 454 0134 04AC     		add	r4, sp, #16
  62:src/adc.c     ****   }
 455              		.loc 1 62 10 discriminator 3 view .LVU120
 456 0136 B3FBF6F5 		udiv	r5, r3, r6
  62:src/adc.c     ****   }
 457              		.loc 1 62 13 discriminator 3 view .LVU121
 458 013a 04EB8507 		add	r7, r4, r5, lsl #2
  62:src/adc.c     ****   }
 459              		.loc 1 62 27 discriminator 3 view .LVU122
 460 013e 51F82340 		ldr	r4, [r1, r3, lsl #2]
  62:src/adc.c     ****   }
 461              		.loc 1 62 38 discriminator 3 view .LVU123
 462 0142 06FB1535 		mls	r5, r6, r5, r3
  62:src/adc.c     ****   }
 463              		.loc 1 62 35 discriminator 3 view .LVU124
 464 0146 05EB8505 		add	r5, r5, r5, lsl #2
  62:src/adc.c     ****   }
 465              		.loc 1 62 27 discriminator 3 view .LVU125
 466 014a 04F01F04 		and	r4, r4, #31
  62:src/adc.c     ****   }
 467              		.loc 1 62 31 discriminator 3 view .LVU126
 468 014e AC40     		lsls	r4, r4, r5
  62:src/adc.c     ****   }
 469              		.loc 1 62 13 discriminator 3 view .LVU127
 470 0150 57F80C5C 		ldr	r5, [r7, #-12]
 471 0154 2C43     		orrs	r4, r4, r5
 472 0156 47F80C4C 		str	r4, [r7, #-12]
  61:src/adc.c     ****     sqr[i/6]|=(sequence[i]&31)<<(5*(i%6));
 473              		.loc 1 61 18 is_stmt 1 discriminator 3 view .LVU128
  61:src/adc.c     ****     sqr[i/6]|=(sequence[i]&31)<<(5*(i%6));
 474              		.loc 1 61 19 is_stmt 0 discriminator 3 view .LVU129
 475 015a 0133     		adds	r3, r3, #1
 476              	.LVL27:
  61:src/adc.c     ****     sqr[i/6]|=(sequence[i]&31)<<(5*(i%6));
 477              		.loc 1 61 19 discriminator 3 view .LVU130
 478 015c DBE7     		b	.L27
 479              		.cfi_endproc
 480              	.LFE404:
 481              		.size	ADC_set_sequence, .-ADC_set_sequence
 482              		.align	1
 483              		.global	ADC_init_sequence
 484              		.syntax unified
 485              		.thumb
 486              		.thumb_func
 487              		.fpu fpv4-sp-d16
 488              		.type	ADC_init_sequence, %function
 489              	ADC_init_sequence:
 490              	.LVL28:
 491              	.LFB405:
  69:src/adc.c     **** 
  70:src/adc.c     **** 
  71:src/adc.c     **** void ADC_init_sequence(volatile struct ADCx_registers *ADCx,uint32_t* sequence,uint32_t len) {
 492              		.loc 1 71 94 is_stmt 1 view -0
 493              		.cfi_startproc
 494              		@ args = 0, pretend = 0, frame = 0
 495              		@ frame_needed = 0, uses_anonymous_args = 0
 496              		@ link register save eliminated.
  72:src/adc.c     ****   ADCx->CR2= 0x00000001; /* EOCS=1, ADON=1 */
 497              		.loc 1 72 3 view .LVU132
  71:src/adc.c     ****   ADCx->CR2= 0x00000001; /* EOCS=1, ADON=1 */
 498              		.loc 1 71 94 is_stmt 0 view .LVU133
 499 015e 10B4     		push	{r4}
 500              		.cfi_def_cfa_offset 4
 501              		.cfi_offset 4, -4
 502              		.loc 1 72 12 view .LVU134
 503 0160 0124     		movs	r4, #1
 504 0162 8460     		str	r4, [r0, #8]
  73:src/adc.c     ****   ADCx->CR1= 0x00000100; /* SCAN=1 */
 505              		.loc 1 73 3 is_stmt 1 view .LVU135
 506              		.loc 1 73 12 is_stmt 0 view .LVU136
 507 0164 4FF48074 		mov	r4, #256
 508 0168 4460     		str	r4, [r0, #4]
  74:src/adc.c     ****   ADC_set_sequence(ADCx,sequence,len);
 509              		.loc 1 74 3 is_stmt 1 view .LVU137
  75:src/adc.c     **** }
 510              		.loc 1 75 1 is_stmt 0 view .LVU138
 511 016a 5DF8044B 		ldr	r4, [sp], #4
 512              		.cfi_restore 4
 513              		.cfi_def_cfa_offset 0
  74:src/adc.c     ****   ADC_set_sequence(ADCx,sequence,len);
 514              		.loc 1 74 3 view .LVU139
 515 016e FFF7FEBF 		b	ADC_set_sequence
 516              	.LVL29:
  74:src/adc.c     ****   ADC_set_sequence(ADCx,sequence,len);
 517              		.loc 1 74 3 view .LVU140
 518              		.cfi_endproc
 519              	.LFE405:
 520              		.size	ADC_init_sequence, .-ADC_init_sequence
 521              		.align	1
 522              		.global	ADC_init_single_channel
 523              		.syntax unified
 524              		.thumb
 525              		.thumb_func
 526              		.fpu fpv4-sp-d16
 527              		.type	ADC_init_single_channel, %function
 528              	ADC_init_single_channel:
 529              	.LVL30:
 530              	.LFB406:
  76:src/adc.c     **** 
  77:src/adc.c     **** void ADC_init_single_channel(volatile struct ADCx_registers *ADCx,uint32_t channel) {
 531              		.loc 1 77 85 is_stmt 1 view -0
 532              		.cfi_startproc
 533              		@ args = 0, pretend = 0, frame = 8
 534              		@ frame_needed = 0, uses_anonymous_args = 0
  78:src/adc.c     ****   ADCx->CR2= 0x00000001; /* EOCS=0, ADON=1 */
 535              		.loc 1 78 3 view .LVU142
  77:src/adc.c     ****   ADCx->CR2= 0x00000001; /* EOCS=0, ADON=1 */
 536              		.loc 1 77 85 is_stmt 0 view .LVU143
 537 0172 07B5     		push	{r0, r1, r2, lr}
 538              		.cfi_def_cfa_offset 16
 539              		.cfi_offset 14, -4
 540              		.loc 1 78 12 view .LVU144
 541 0174 0122     		movs	r2, #1
  77:src/adc.c     ****   ADCx->CR2= 0x00000001; /* EOCS=0, ADON=1 */
 542              		.loc 1 77 85 view .LVU145
 543 0176 0191     		str	r1, [sp, #4]
  79:src/adc.c     ****   ADCx->CR1= 0x00000000; /* SCAN=0 */
 544              		.loc 1 79 12 view .LVU146
 545 0178 0021     		movs	r1, #0
 546              	.LVL31:
  78:src/adc.c     ****   ADCx->CR2= 0x00000001; /* EOCS=0, ADON=1 */
 547              		.loc 1 78 12 view .LVU147
 548 017a 8260     		str	r2, [r0, #8]
 549              		.loc 1 79 3 is_stmt 1 view .LVU148
 550              		.loc 1 79 12 is_stmt 0 view .LVU149
 551 017c 4160     		str	r1, [r0, #4]
  80:src/adc.c     ****   ADC_set_sequence(ADCx,&channel,1);
 552              		.loc 1 80 3 is_stmt 1 view .LVU150
 553 017e 01A9     		add	r1, sp, #4
 554              	.LVL32:
 555              		.loc 1 80 3 is_stmt 0 view .LVU151
 556 0180 FFF7FEFF 		bl	ADC_set_sequence
 557              	.LVL33:
  81:src/adc.c     **** }
 558              		.loc 1 81 1 view .LVU152
 559 0184 03B0     		add	sp, sp, #12
 560              		.cfi_def_cfa_offset 4
 561              		@ sp needed
 562 0186 5DF804FB 		ldr	pc, [sp], #4
 563              		.cfi_endproc
 564              	.LFE406:
 565              		.size	ADC_init_single_channel, .-ADC_init_single_channel
 566              		.align	1
 567              		.global	ADC_convert_sequence
 568              		.syntax unified
 569              		.thumb
 570              		.thumb_func
 571              		.fpu fpv4-sp-d16
 572              		.type	ADC_convert_sequence, %function
 573              	ADC_convert_sequence:
 574              	.LVL34:
 575              	.LFB407:
  82:src/adc.c     **** 
  83:src/adc.c     **** uint32_t ADC_convert_sequence(volatile struct ADCx_registers *ADCx,uint32_t *data_buffer) {
 576              		.loc 1 83 91 is_stmt 1 view -0
 577              		.cfi_startproc
 578              		@ args = 0, pretend = 0, frame = 0
 579              		@ frame_needed = 0, uses_anonymous_args = 0
  84:src/adc.c     ****   uint32_t len=((ADCx->SQR1>>20)&15) +1;
 580              		.loc 1 84 3 view .LVU154
  85:src/adc.c     ****   uint32_t i=0;
  86:src/adc.c     ****   ADCx->SR = 0; /* clear flags */
 581              		.loc 1 86 12 is_stmt 0 view .LVU155
 582 018a 0023     		movs	r3, #0
  84:src/adc.c     ****   uint32_t len=((ADCx->SQR1>>20)&15) +1;
 583              		.loc 1 84 22 view .LVU156
 584 018c C26A     		ldr	r2, [r0, #44]
  83:src/adc.c     ****   uint32_t len=((ADCx->SQR1>>20)&15) +1;
 585              		.loc 1 83 91 view .LVU157
 586 018e 10B5     		push	{r4, lr}
 587              		.cfi_def_cfa_offset 8
 588              		.cfi_offset 4, -8
 589              		.cfi_offset 14, -4
 590              		.loc 1 86 12 view .LVU158
 591 0190 0360     		str	r3, [r0]
  87:src/adc.c     ****   ADCx->CR2|=(1<<10); /* enable EOC after each conversion */
 592              		.loc 1 87 12 view .LVU159
 593 0192 8468     		ldr	r4, [r0, #8]
 594 0194 44F48064 		orr	r4, r4, #1024
 595 0198 8460     		str	r4, [r0, #8]
  88:src/adc.c     ****   ADCx->CR2|=(1<<30); /* SWSTART=1 */
 596              		.loc 1 88 12 view .LVU160
 597 019a 8468     		ldr	r4, [r0, #8]
  84:src/adc.c     ****   uint32_t i=0;
 598              		.loc 1 84 33 view .LVU161
 599 019c C2F30352 		ubfx	r2, r2, #20, #4
 600              		.loc 1 88 12 view .LVU162
 601 01a0 44F08044 		orr	r4, r4, #1073741824
  84:src/adc.c     ****   uint32_t i=0;
 602              		.loc 1 84 12 view .LVU163
 603 01a4 0132     		adds	r2, r2, #1
 604              	.LVL35:
  85:src/adc.c     ****   ADCx->SR = 0; /* clear flags */
 605              		.loc 1 85 3 is_stmt 1 view .LVU164
  86:src/adc.c     ****   ADCx->CR2|=(1<<10); /* enable EOC after each conversion */
 606              		.loc 1 86 3 view .LVU165
  87:src/adc.c     ****   ADCx->CR2|=(1<<30); /* SWSTART=1 */
 607              		.loc 1 87 3 view .LVU166
 608              		.loc 1 88 3 view .LVU167
 609              		.loc 1 88 12 is_stmt 0 view .LVU168
 610 01a6 8460     		str	r4, [r0, #8]
  89:src/adc.c     ****   while (i<len) {
 611              		.loc 1 89 3 is_stmt 1 view .LVU169
 612              		.loc 1 89 9 view .LVU170
 613 01a8 0439     		subs	r1, r1, #4
 614              	.LVL36:
 615              	.L32:
  90:src/adc.c     ****     while ((ADCx->SR&0x22)==0); /* Wait for EOC==1 or OVR==1 */
 616              		.loc 1 90 31 discriminator 1 view .LVU171
 617              		.loc 1 90 11 discriminator 1 view .LVU172
 618              		.loc 1 90 17 is_stmt 0 discriminator 1 view .LVU173
 619 01aa 0468     		ldr	r4, [r0]
 620              		.loc 1 90 11 discriminator 1 view .LVU174
 621 01ac 14F0220F 		tst	r4, #34
 622 01b0 FBD0     		beq	.L32
  91:src/adc.c     ****     if ((ADCx->SR&0x20)!=0) break;
 623              		.loc 1 91 5 is_stmt 1 view .LVU175
 624              		.loc 1 91 14 is_stmt 0 view .LVU176
 625 01b2 0468     		ldr	r4, [r0]
 626              		.loc 1 91 8 view .LVU177
 627 01b4 A406     		lsls	r4, r4, #26
 628 01b6 05D4     		bmi	.L31
  92:src/adc.c     ****     data_buffer[i++]=ADCx->DR; /* reading clears flag */
 629              		.loc 1 92 5 is_stmt 1 view .LVU178
 630              		.loc 1 92 18 is_stmt 0 view .LVU179
 631 01b8 0133     		adds	r3, r3, #1
 632              	.LVL37:
 633              		.loc 1 92 26 view .LVU180
 634 01ba C46C     		ldr	r4, [r0, #76]
 635              		.loc 1 92 21 view .LVU181
 636 01bc 41F8044F 		str	r4, [r1, #4]!
  89:src/adc.c     ****     while ((ADCx->SR&0x22)==0); /* Wait for EOC==1 or OVR==1 */
 637              		.loc 1 89 9 is_stmt 1 view .LVU182
 638 01c0 9A42     		cmp	r2, r3
 639 01c2 F2D8     		bhi	.L32
 640              	.LVL38:
 641              	.L31:
  93:src/adc.c     ****   }
  94:src/adc.c     ****   return i; /* i<len if overrun */
  95:src/adc.c     **** }
 642              		.loc 1 95 1 is_stmt 0 view .LVU183
 643 01c4 1846     		mov	r0, r3
 644              	.LVL39:
 645              		.loc 1 95 1 view .LVU184
 646 01c6 10BD     		pop	{r4, pc}
 647              		.cfi_endproc
 648              	.LFE407:
 649              		.size	ADC_convert_sequence, .-ADC_convert_sequence
 650              		.align	1
 651              		.global	ADC_convert_single_channel
 652              		.syntax unified
 653              		.thumb
 654              		.thumb_func
 655              		.fpu fpv4-sp-d16
 656              		.type	ADC_convert_single_channel, %function
 657              	ADC_convert_single_channel:
 658              	.LVL40:
 659              	.LFB408:
  96:src/adc.c     **** 
  97:src/adc.c     **** uint32_t ADC_convert_single_channel(volatile struct ADCx_registers *ADCx) {
 660              		.loc 1 97 75 is_stmt 1 view -0
 661              		.cfi_startproc
 662              		@ args = 0, pretend = 0, frame = 0
 663              		@ frame_needed = 0, uses_anonymous_args = 0
 664              		@ link register save eliminated.
  98:src/adc.c     ****   ADCx->SR = 0; /* clear flags */
 665              		.loc 1 98 3 view .LVU186
 666              		.loc 1 98 12 is_stmt 0 view .LVU187
 667 01c8 0023     		movs	r3, #0
 668 01ca 0360     		str	r3, [r0]
  99:src/adc.c     ****   ADCx->CR2|=(1<<30); /* SWSTART=1 */
 669              		.loc 1 99 3 is_stmt 1 view .LVU188
 670              		.loc 1 99 12 is_stmt 0 view .LVU189
 671 01cc 8368     		ldr	r3, [r0, #8]
 672 01ce 43F08043 		orr	r3, r3, #1073741824
 673 01d2 8360     		str	r3, [r0, #8]
 100:src/adc.c     ****   while ((ADCx->SR&0x2)==0); /* Wait for EOC==1 */
 674              		.loc 1 100 3 is_stmt 1 view .LVU190
 675              	.L39:
 676              		.loc 1 100 28 discriminator 1 view .LVU191
 677              		.loc 1 100 9 discriminator 1 view .LVU192
 678              		.loc 1 100 15 is_stmt 0 discriminator 1 view .LVU193
 679 01d4 0368     		ldr	r3, [r0]
 680              		.loc 1 100 9 discriminator 1 view .LVU194
 681 01d6 9B07     		lsls	r3, r3, #30
 682 01d8 FCD5     		bpl	.L39
 101:src/adc.c     ****   return ADCx->DR;
 683              		.loc 1 101 3 is_stmt 1 view .LVU195
 684              		.loc 1 101 14 is_stmt 0 view .LVU196
 685 01da C06C     		ldr	r0, [r0, #76]
 686              	.LVL41:
 102:src/adc.c     **** }
 687              		.loc 1 102 1 view .LVU197
 688 01dc 7047     		bx	lr
 689              		.cfi_endproc
 690              	.LFE408:
 691              		.size	ADC_convert_single_channel, .-ADC_convert_single_channel
 692              		.section	.rodata
 693              		.align	2
 694              		.set	.LANCHOR0,. + 0
 695              		.type	ADC_prediv.1, %object
 696              		.size	ADC_prediv.1, 16
 697              	ADC_prediv.1:
 698 0000 02000000 		.word	2
 699 0004 04000000 		.word	4
 700 0008 06000000 		.word	6
 701 000c 08000000 		.word	8
 702              		.type	ADC_smpr_cycles.0, %object
 703              		.size	ADC_smpr_cycles.0, 32
 704              	ADC_smpr_cycles.0:
 705 0010 03000000 		.word	3
 706 0014 0F000000 		.word	15
 707 0018 1C000000 		.word	28
 708 001c 38000000 		.word	56
 709 0020 54000000 		.word	84
 710 0024 70000000 		.word	112
 711 0028 90000000 		.word	144
 712 002c E0010000 		.word	480
 713              		.text
 714              	.Letext0:
 715              		.file 2 "src/sys/devices.h"
 716              		.file 3 "/usr/lib/gcc/arm-none-eabi/10.3.1/include/stdint.h"
 717              		.file 4 "src/sys/clock.h"