   1              		.arch armv7e-m
   2              		.eabi_attribute 27, 1
   3              		.eabi_attribute 28, 1
   4              		.eabi_attribute 20, 1
   5              		.eabi_attribute 21, 1
   6              		.eabi_attribute 23, 3
   7              		.eabi_attribute 24, 1
   8              		.eabi_attribute 25, 1
   9              		.eabi_attribute 26, 1
  10              		.eabi_attribute 30, 4
  11              		.eabi_attribute 34, 1
  12              		.eabi_attribute 18, 4
  13              		.file	"button.c"
  14              		.text
  15              	.Ltext0:
  16              		.cfi_sections	.debug_frame
  17              		.align	1
  18              		.global	button_init
  19              		.arch armv7e-m
  20              		.syntax unified
  21              		.thumb
  22              		.thumb_func
  23              		.fpu fpv4-sp-d16
  24              		.type	button_init, %function
  25              	button_init:
  26              	.LFB397:
  27              		.file 1 "src/button.c"
   1:src/button.c  **** #include "sys/devices.h"
   2:src/button.c  **** #include "sys/cm4.h"
   3:src/button.c  **** #include "button.h"
   4:src/button.c  **** 
   5:src/button.c  **** void button_init() {
  28              		.loc 1 5 20 view -0
  29              		.cfi_startproc
  30              		@ args = 0, pretend = 0, frame = 0
  31              		@ frame_needed = 0, uses_anonymous_args = 0
  32              		@ link register save eliminated.
   6:src/button.c  **** /* Configure PB3-PB6, PB8 as inputs, no pull */
   7:src/button.c  **** 	GPIOB.MODER = GPIOB.MODER & ~(0xFF<<6 | 3<<16);
  33              		.loc 1 7 2 view .LVU1
  34              		.loc 1 7 21 is_stmt 0 view .LVU2
  35 0000 044B     		ldr	r3, .L2
  36              		.loc 1 7 28 view .LVU3
  37 0002 0548     		ldr	r0, .L2+4
  38              		.loc 1 7 21 view .LVU4
  39 0004 1968     		ldr	r1, [r3]
  40              		.loc 1 7 28 view .LVU5
  41 0006 0140     		ands	r1, r1, r0
  42              		.loc 1 7 14 view .LVU6
  43 0008 1960     		str	r1, [r3]
   8:src/button.c  **** 	GPIOB.PUPDR = GPIOB.PUPDR & ~(0xFF<<6 | 3<<16);
  44              		.loc 1 8 2 is_stmt 1 view .LVU7
  45              		.loc 1 8 21 is_stmt 0 view .LVU8
  46 000a DA68     		ldr	r2, [r3, #12]
  47              		.loc 1 8 28 view .LVU9
  48 000c 0240     		ands	r2, r2, r0
  49              		.loc 1 8 14 view .LVU10
  50 000e DA60     		str	r2, [r3, #12]
   9:src/button.c  **** }
  51              		.loc 1 9 1 view .LVU11
  52 0010 7047     		bx	lr
  53              	.L3:
  54 0012 00BF     		.align	2
  55              	.L2:
  56 0014 00000000 		.word	GPIOB
  57 0018 3FC0FCFF 		.word	-212929
  58              		.cfi_endproc
  59              	.LFE397:
  60              		.size	button_init, .-button_init
  61              		.align	1
  62              		.global	button_irq_init
  63              		.syntax unified
  64              		.thumb
  65              		.thumb_func
  66              		.fpu fpv4-sp-d16
  67              		.type	button_irq_init, %function
  68              	button_irq_init:
  69              	.LFB398:
  10:src/button.c  **** 
  11:src/button.c  **** void button_irq_init () {
  70              		.loc 1 11 25 is_stmt 1 view -0
  71              		.cfi_startproc
  72              		@ args = 0, pretend = 0, frame = 0
  73              		@ frame_needed = 0, uses_anonymous_args = 0
  74              		@ link register save eliminated.
  12:src/button.c  ****   /* set PB8 as EXTI8 input */
  13:src/button.c  ****   SYSCFG.EXTICR3 = (SYSCFG.EXTICR3 & ~(0xf<<0)) | (0x1<<0);
  75              		.loc 1 13 3 view .LVU13
  76              		.loc 1 13 27 is_stmt 0 view .LVU14
  77 001c 0C4A     		ldr	r2, .L5
  78 001e 1369     		ldr	r3, [r2, #16]
  79              		.loc 1 13 36 view .LVU15
  80 0020 23F00F03 		bic	r3, r3, #15
  81              		.loc 1 13 49 view .LVU16
  82 0024 43F00103 		orr	r3, r3, #1
  83              		.loc 1 13 18 view .LVU17
  84 0028 1361     		str	r3, [r2, #16]
  14:src/button.c  **** 
  15:src/button.c  ****   /* Setup interrupt for EXTI8, falling edge */
  16:src/button.c  ****   EXTI.IMR  |= (1<<8);
  85              		.loc 1 16 3 is_stmt 1 view .LVU18
  86              		.loc 1 16 13 is_stmt 0 view .LVU19
  87 002a 0A4B     		ldr	r3, .L5+4
  88 002c 1A68     		ldr	r2, [r3]
  89 002e 42F48072 		orr	r2, r2, #256
  90 0032 1A60     		str	r2, [r3]
  17:src/button.c  ****   EXTI.RTSR &= ~(1<<8);
  91              		.loc 1 17 3 is_stmt 1 view .LVU20
  92              		.loc 1 17 13 is_stmt 0 view .LVU21
  93 0034 9A68     		ldr	r2, [r3, #8]
  94 0036 22F48072 		bic	r2, r2, #256
  95 003a 9A60     		str	r2, [r3, #8]
  18:src/button.c  ****   EXTI.FTSR |= (1<<8);
  96              		.loc 1 18 3 is_stmt 1 view .LVU22
  97              		.loc 1 18 13 is_stmt 0 view .LVU23
  98 003c DA68     		ldr	r2, [r3, #12]
  99 003e 42F48072 		orr	r2, r2, #256
 100 0042 DA60     		str	r2, [r3, #12]
  19:src/button.c  **** 
  20:src/button.c  **** 
  21:src/button.c  ****   /* enable EXTI15_10 IRQ */
  22:src/button.c  ****   NVIC.ISER[23/32]=(1<<(23%32)); 
 101              		.loc 1 22 3 is_stmt 1 view .LVU24
 102              		.loc 1 22 19 is_stmt 0 view .LVU25
 103 0044 044B     		ldr	r3, .L5+8
 104 0046 4FF40002 		mov	r2, #8388608
 105 004a 1A60     		str	r2, [r3]
  23:src/button.c  **** }
 106              		.loc 1 23 1 view .LVU26
 107 004c 7047     		bx	lr
 108              	.L6:
 109 004e 00BF     		.align	2
 110              	.L5:
 111 0050 00000000 		.word	SYSCFG
 112 0054 00000000 		.word	EXTI
 113 0058 00000000 		.word	NVIC
 114              		.cfi_endproc
 115              	.LFE398:
 116              		.size	button_irq_init, .-button_irq_init
 117              		.align	1
 118              		.global	buttonPC13_init
 119              		.syntax unified
 120              		.thumb
 121              		.thumb_func
 122              		.fpu fpv4-sp-d16
 123              		.type	buttonPC13_init, %function
 124              	buttonPC13_init:
 125              	.LFB399:
  24:src/button.c  **** 
  25:src/button.c  **** void buttonPC13_init() {
 126              		.loc 1 25 24 is_stmt 1 view -0
 127              		.cfi_startproc
 128              		@ args = 0, pretend = 0, frame = 0
 129              		@ frame_needed = 0, uses_anonymous_args = 0
 130              		@ link register save eliminated.
  26:src/button.c  **** /* Configure PC13 as inputs, no pull */
  27:src/button.c  **** 	GPIOC.MODER = GPIOC.MODER & ~(0xFF<<6 | 3<<26);
 131              		.loc 1 27 2 view .LVU28
 132              		.loc 1 27 21 is_stmt 0 view .LVU29
 133 005c 044B     		ldr	r3, .L8
 134              		.loc 1 27 28 view .LVU30
 135 005e 0548     		ldr	r0, .L8+4
 136              		.loc 1 27 21 view .LVU31
 137 0060 1968     		ldr	r1, [r3]
 138              		.loc 1 27 28 view .LVU32
 139 0062 0140     		ands	r1, r1, r0
 140              		.loc 1 27 14 view .LVU33
 141 0064 1960     		str	r1, [r3]
  28:src/button.c  **** 	GPIOC.PUPDR = GPIOC.PUPDR & ~(0xFF<<6 | 3<<26);
 142              		.loc 1 28 2 is_stmt 1 view .LVU34
 143              		.loc 1 28 21 is_stmt 0 view .LVU35
 144 0066 DA68     		ldr	r2, [r3, #12]
 145              		.loc 1 28 28 view .LVU36
 146 0068 0240     		ands	r2, r2, r0
 147              		.loc 1 28 14 view .LVU37
 148 006a DA60     		str	r2, [r3, #12]
  29:src/button.c  **** }
 149              		.loc 1 29 1 view .LVU38
 150 006c 7047     		bx	lr
 151              	.L9:
 152 006e 00BF     		.align	2
 153              	.L8:
 154 0070 00000000 		.word	GPIOC
 155 0074 3FC0FFF3 		.word	-201342913
 156              		.cfi_endproc
 157              	.LFE399:
 158              		.size	buttonPC13_init, .-buttonPC13_init
 159              		.align	1
 160              		.global	buttonPC13_irq_init
 161              		.syntax unified
 162              		.thumb
 163              		.thumb_func
 164              		.fpu fpv4-sp-d16
 165              		.type	buttonPC13_irq_init, %function
 166              	buttonPC13_irq_init:
 167              	.LFB400:
  30:src/button.c  **** 
  31:src/button.c  **** void buttonPC13_irq_init() {
 168              		.loc 1 31 28 is_stmt 1 view -0
 169              		.cfi_startproc
 170              		@ args = 0, pretend = 0, frame = 0
 171              		@ frame_needed = 0, uses_anonymous_args = 0
 172              		@ link register save eliminated.
  32:src/button.c  ****   /* set PC13 as EXTI13 input */
  33:src/button.c  ****   SYSCFG.EXTICR4 = (SYSCFG.EXTICR4 & ~(0xF0)) | (0x20);
 173              		.loc 1 33 3 view .LVU40
 174              		.loc 1 33 27 is_stmt 0 view .LVU41
 175 0078 0C4A     		ldr	r2, .L11
 176 007a 5369     		ldr	r3, [r2, #20]
 177              		.loc 1 33 36 view .LVU42
 178 007c 23F0F003 		bic	r3, r3, #240
 179              		.loc 1 33 47 view .LVU43
 180 0080 43F02003 		orr	r3, r3, #32
 181              		.loc 1 33 18 view .LVU44
 182 0084 5361     		str	r3, [r2, #20]
  34:src/button.c  **** 
  35:src/button.c  ****   /* Setup interrupt for EXTI13, falling edge */
  36:src/button.c  ****   EXTI.IMR  |= (1<<13);
 183              		.loc 1 36 3 is_stmt 1 view .LVU45
 184              		.loc 1 36 13 is_stmt 0 view .LVU46
 185 0086 0A4B     		ldr	r3, .L11+4
 186 0088 1A68     		ldr	r2, [r3]
 187 008a 42F40052 		orr	r2, r2, #8192
 188 008e 1A60     		str	r2, [r3]
  37:src/button.c  ****   EXTI.RTSR &= ~(1<<13);
 189              		.loc 1 37 3 is_stmt 1 view .LVU47
 190              		.loc 1 37 13 is_stmt 0 view .LVU48
 191 0090 9A68     		ldr	r2, [r3, #8]
 192 0092 22F40052 		bic	r2, r2, #8192
 193 0096 9A60     		str	r2, [r3, #8]
  38:src/button.c  ****   EXTI.FTSR |= (1<<13);
 194              		.loc 1 38 3 is_stmt 1 view .LVU49
 195              		.loc 1 38 13 is_stmt 0 view .LVU50
 196 0098 DA68     		ldr	r2, [r3, #12]
 197 009a 42F40052 		orr	r2, r2, #8192
 198 009e DA60     		str	r2, [r3, #12]
  39:src/button.c  **** 
  40:src/button.c  ****   /* enable EXTI15_10 IRQ */
  41:src/button.c  ****   NVIC.ISER[40/32]=(1<<(40%32)); 
 199              		.loc 1 41 3 is_stmt 1 view .LVU51
 200              		.loc 1 41 19 is_stmt 0 view .LVU52
 201 00a0 044B     		ldr	r3, .L11+8
 202 00a2 4FF48072 		mov	r2, #256
 203 00a6 5A60     		str	r2, [r3, #4]
  42:src/button.c  **** }
 204              		.loc 1 42 1 view .LVU53
 205 00a8 7047     		bx	lr
 206              	.L12:
 207 00aa 00BF     		.align	2
 208              	.L11:
 209 00ac 00000000 		.word	SYSCFG
 210 00b0 00000000 		.word	EXTI
 211 00b4 00000000 		.word	NVIC
 212              		.cfi_endproc
 213              	.LFE400:
 214              		.size	buttonPC13_irq_init, .-buttonPC13_irq_init
 215              		.align	1
 216              		.global	buttonPC13_poll
 217              		.syntax unified
 218              		.thumb
 219              		.thumb_func
 220              		.fpu fpv4-sp-d16
 221              		.type	buttonPC13_poll, %function
 222              	buttonPC13_poll:
 223              	.LFB401:
  43:src/button.c  **** 
  44:src/button.c  **** uint32_t buttonPC13_poll() {
 224              		.loc 1 44 28 is_stmt 1 view -0
 225              		.cfi_startproc
 226              		@ args = 0, pretend = 0, frame = 0
 227              		@ frame_needed = 0, uses_anonymous_args = 0
 228              		@ link register save eliminated.
  45:src/button.c  ****   return (~(GPIOC.IDR>>13) & 1); /* 1 if pressed */
 229              		.loc 1 45 3 view .LVU55
 230              		.loc 1 45 18 is_stmt 0 view .LVU56
 231 00b8 034B     		ldr	r3, .L14
 232 00ba 1869     		ldr	r0, [r3, #16]
 233              		.loc 1 45 28 view .LVU57
 234 00bc 80F40050 		eor	r0, r0, #8192
  46:src/button.c  **** }
 235              		.loc 1 46 1 view .LVU58
 236 00c0 C0F34030 		ubfx	r0, r0, #13, #1
 237 00c4 7047     		bx	lr
 238              	.L15:
 239 00c6 00BF     		.align	2
 240              	.L14:
 241 00c8 00000000 		.word	GPIOC
 242              		.cfi_endproc
 243              	.LFE401:
 244              		.size	buttonPC13_poll, .-buttonPC13_poll
 245              		.align	1
 246              		.global	button_poll
 247              		.syntax unified
 248              		.thumb
 249              		.thumb_func
 250              		.fpu fpv4-sp-d16
 251              		.type	button_poll, %function
 252              	button_poll:
 253              	.LFB402:
  47:src/button.c  **** 
  48:src/button.c  **** uint32_t button_poll() {
 254              		.loc 1 48 24 is_stmt 1 view -0
 255              		.cfi_startproc
 256              		@ args = 0, pretend = 0, frame = 0
 257              		@ frame_needed = 0, uses_anonymous_args = 0
 258              		@ link register save eliminated.
  49:src/button.c  ****   return (~(GPIOB.IDR>>8) & 1); /* 1 if pressed */
 259              		.loc 1 49 3 view .LVU60
 260              		.loc 1 49 18 is_stmt 0 view .LVU61
 261 00cc 034B     		ldr	r3, .L17
 262 00ce 1869     		ldr	r0, [r3, #16]
 263              		.loc 1 49 27 view .LVU62
 264 00d0 80F48070 		eor	r0, r0, #256
  50:src/button.c  **** }
 265              		.loc 1 50 1 view .LVU63
 266 00d4 C0F30020 		ubfx	r0, r0, #8, #1
 267 00d8 7047     		bx	lr
 268              	.L18:
 269 00da 00BF     		.align	2
 270              	.L17:
 271 00dc 00000000 		.word	GPIOB
 272              		.cfi_endproc
 273              	.LFE402:
 274              		.size	button_poll, .-button_poll
 275              	.Letext0:
 276              		.file 2 "/usr/lib/gcc/arm-none-eabi/10.3.1/include/stdint.h"
 277              		.file 3 "src/sys/devices.h"